; Function Attrs: mustprogress nofree norecurse nosync nounwind willreturn memory(argmem: write) uwtable
define void @png_set_user_limits(ptr noalias noundef writeonly %0, i32 noundef %1, i32 noundef %2) local_unnamed_addr #7 {
  %4 = icmp eq ptr %0, null
  br i1 %4, label %8, label %5

5:                                                ; preds = %3
  %6 = getelementptr inbounds i8, ptr %0, i64 1060
  store i32 %1, ptr %6, align 4
  %7 = getelementptr inbounds i8, ptr %0, i64 1064
  store i32 %2, ptr %7, align 8
  br label %8

8:                                                ; preds = %3, %5
  ret void
}